target datalayout = "e-m:e-p270:32:32-p271:32:32-p272:64:64-i64:64-i128:128-f80:128-n8:16:32:64-S128"
target triple = "x86_64-pc-linux-gnu"

; Function Attrs: alwaysinline nounwind uwtable
define internal signext i16 @drwav__alaw_to_s16(i8 noundef zeroext %0) #7 {
  %2 = alloca i8, align 1
  store i8 %0, ptr %2, align 1
  %3 = load i8, ptr %2, align 1
  %4 = zext i8 %3 to i64
  %5 = getelementptr inbounds nuw [256 x i16], ptr @g_drwavAlawTable, i64 0, i64 %4
  %6 = load i16, ptr %5, align 2
  ret i16 %6
}

; Function Attrs: nounwind uwtable
define hidden void @drwav_alaw_to_s32(ptr noundef %0, ptr noundef %1, i64 noundef %2) #0 {
  %4 = alloca ptr, align 8
  %5 = alloca ptr, align 8
  %6 = alloca i64, align 8
  %7 = alloca i64, align 8
  %8 = alloca i32, align 4
  store ptr %0, ptr %4, align 8
  store ptr %1, ptr %5, align 8
  store i64 %2, ptr %6, align 8
  call void @llvm.lifetime.start.p0(i64 8, ptr %7) #21
  %9 = load ptr, ptr %4, align 8
  %10 = icmp eq ptr %9, null
  br i1 %10, label %14, label %11

11:                                               ; preds = %3
  %12 = load ptr, ptr %5, align 8
  %13 = icmp eq ptr %12, null
  br i1 %13, label %14, label %15

14:                                               ; preds = %11, %3
  store i32 1, ptr %8, align 4
  br label %34

15:                                               ; preds = %11
  store i64 0, ptr %7, align 8
  br label %16

16:                                               ; preds = %30, %15
  %17 = load i64, ptr %7, align 8
  %18 = load i64, ptr %6, align 8
  %19 = icmp ult i64 %17, %18
  br i1 %19, label %20, label %33

20:                                               ; preds = %16
  %21 = load ptr, ptr %5, align 8
  %22 = load i64, ptr %7, align 8
  %23 = getelementptr inbounds nuw i8, ptr %21, i64 %22
  %24 = load i8, ptr %23, align 1
  %25 = call signext i16 @drwav__alaw_to_s16(i8 noundef zeroext %24)
  %26 = sext i16 %25 to i32
  %27 = shl i32 %26, 16
  %28 = load ptr, ptr %4, align 8
  %29 = getelementptr inbounds nuw i32, ptr %28, i32 1
  store ptr %29, ptr %4, align 8
  store i32 %27, ptr %28, align 4
  br label %30

30:                                               ; preds = %20
  %31 = load i64, ptr %7, align 8
  %32 = add i64 %31, 1
  store i64 %32, ptr %7, align 8
  br label %16

33:                                               ; preds = %16
  store i32 0, ptr %8, align 4
  br label %34

34:                                               ; preds = %33, %14
  call void @llvm.lifetime.end.p0(i64 8, ptr %7) #21
  %35 = load i32, ptr %8, align 4
  switch i32 %35, label %37 [
    i32 0, label %36
    i32 1, label %36
  ]

36:                                               ; preds = %34, %34
  ret void

37:                                               ; preds = %34
  unreachable
}