; Function Attrs: nofree norecurse nosync nounwind memory(argmem: readwrite) uwtable
define hidden void @drwav_alaw_to_s32(ptr noundef writeonly captures(address_is_null) %0, ptr noundef readonly captures(address_is_null) %1, i64 noundef %2) local_unnamed_addr #23 {
  %4 = icmp ne ptr %0, null
  %5 = icmp ne ptr %1, null
  %or.cond.not15 = and i1 %4, %5
  %6 = icmp ne i64 %2, 0
  %or.cond13 = and i1 %or.cond.not15, %6
  br i1 %or.cond13, label %.lr.ph, label %.loopexit

.lr.ph:                                           ; preds = %3, %.lr.ph
  %.012 = phi i64 [ %15, %.lr.ph ], [ 0, %3 ]
  %.0811 = phi ptr [ %14, %.lr.ph ], [ %0, %3 ]
  %7 = getelementptr inbounds nuw i8, ptr %1, i64 %.012
  %8 = load i8, ptr %7, align 1
  %9 = zext i8 %8 to i64
  %10 = getelementptr inbounds nuw [256 x i16], ptr @g_drwavAlawTable, i64 0, i64 %9
  %11 = load i16, ptr %10, align 2
  %12 = sext i16 %11 to i32
  %13 = shl nsw i32 %12, 16
  %14 = getelementptr inbounds nuw i8, ptr %.0811, i64 4
  store i32 %13, ptr %.0811, align 4
  %15 = add nuw i64 %.012, 1
  %exitcond.not = icmp eq i64 %15, %2
  br i1 %exitcond.not, label %.loopexit, label %.lr.ph

.loopexit:                                        ; preds = %.lr.ph, %3
  ret void
}